; ModuleID = '45/376.c'
source_filename = "45/376.c"
target datalayout = "e-m:e-p270:32:32-p271:32:32-p272:64:64-i64:64-f80:128-n8:16:32:64-S128"
target triple = "x86_64-pc-linux-gnu"

@.str = private unnamed_addr constant [3 x i8] c"%s\00", align 1
@.str.1 = private unnamed_addr constant [3 x i8] c"%d\00", align 1

; Function Attrs: noinline nounwind uwtable
define dso_local void @main() #0 {
  %1 = alloca i32, align 4
  %2 = alloca i32, align 4
  %3 = alloca i32, align 4
  %4 = alloca i32, align 4
  %5 = alloca [50 x i8], align 16
  %6 = alloca [50 x i8], align 16
  %7 = call i32 (i8*, ...) @__isoc99_scanf(i8* getelementptr inbounds ([3 x i8], [3 x i8]* @.str, i64 0, i64 0), [50 x i8]* %5)
  %8 = call i32 (i8*, ...) @__isoc99_scanf(i8* getelementptr inbounds ([3 x i8], [3 x i8]* @.str, i64 0, i64 0), [50 x i8]* %6)
  %9 = getelementptr inbounds [50 x i8], [50 x i8]* %6, i64 0, i64 0
  %10 = getelementptr inbounds [50 x i8], [50 x i8]* %5, i64 0, i64 0
  %11 = call i32 @pp(i8* %9, i8* %10)
  store i32 %11, i32* %1, align 4
  %12 = load i32, i32* %1, align 4
  %13 = call i32 (i8*, ...) @printf(i8* getelementptr inbounds ([3 x i8], [3 x i8]* @.str.1, i64 0, i64 0), i32 %12)
  ret void
}

declare dso_local i32 @__isoc99_scanf(i8*, ...) #1

; Function Attrs: noinline nounwind uwtable
define dso_local i32 @pp(i8* %0, i8* %1) #0 {
  %3 = alloca i8*, align 8
  %4 = alloca i8*, align 8
  %5 = alloca i32, align 4
  %6 = alloca i32, align 4
  %7 = alloca i32, align 4
  %8 = alloca i32, align 4
  %9 = alloca i32, align 4
  %10 = alloca i32, align 4
  %11 = alloca [50 x i8], align 16
  store i8* %0, i8** %3, align 8
  store i8* %1, i8** %4, align 8
  store i32 1, i32* %10, align 4
  %12 = load i8*, i8** %3, align 8
  %13 = call i64 @strlen(i8* %12) #3
  %14 = trunc i64 %13 to i32
  store i32 %14, i32* %5, align 4
  %15 = load i8*, i8** %4, align 8
  %16 = call i64 @strlen(i8* %15) #3
  %17 = trunc i64 %16 to i32
  store i32 %17, i32* %6, align 4
  store i32 0, i32* %7, align 4
  br label %18

18:                                               ; preds = %72, %2
  %19 = load i32, i32* %7, align 4
  %20 = load i32, i32* %5, align 4
  %21 = load i32, i32* %6, align 4
  %22 = sub nsw i32 %20, %21
  %23 = icmp sle i32 %19, %22
  br i1 %23, label %24, label %75

24:                                               ; preds = %18
  store i32 0, i32* %8, align 4
  br label %25

25:                                               ; preds = %40, %24
  %26 = load i32, i32* %8, align 4
  %27 = load i32, i32* %6, align 4
  %28 = icmp slt i32 %26, %27
  br i1 %28, label %29, label %43

29:                                               ; preds = %25
  %30 = load i8*, i8** %3, align 8
  %31 = load i32, i32* %8, align 4
  %32 = load i32, i32* %7, align 4
  %33 = add nsw i32 %31, %32
  %34 = sext i32 %33 to i64
  %35 = getelementptr inbounds i8, i8* %30, i64 %34
  %36 = load i8, i8* %35, align 1
  %37 = load i32, i32* %8, align 4
  %38 = sext i32 %37 to i64
  %39 = getelementptr inbounds [50 x i8], [50 x i8]* %11, i64 0, i64 %38
  store i8 %36, i8* %39, align 1
  br label %40

40:                                               ; preds = %29
  %41 = load i32, i32* %8, align 4
  %42 = add nsw i32 %41, 1
  store i32 %42, i32* %8, align 4
  br label %25

43:                                               ; preds = %25
  store i32 1, i32* %10, align 4
  store i32 0, i32* %8, align 4
  br label %44

44:                                               ; preds = %63, %43
  %45 = load i32, i32* %8, align 4
  %46 = load i32, i32* %6, align 4
  %47 = icmp slt i32 %45, %46
  br i1 %47, label %48, label %66

48:                                               ; preds = %44
  %49 = load i32, i32* %8, align 4
  %50 = sext i32 %49 to i64
  %51 = getelementptr inbounds [50 x i8], [50 x i8]* %11, i64 0, i64 %50
  %52 = load i8, i8* %51, align 1
  %53 = sext i8 %52 to i32
  %54 = load i8*, i8** %4, align 8
  %55 = load i32, i32* %8, align 4
  %56 = sext i32 %55 to i64
  %57 = getelementptr inbounds i8, i8* %54, i64 %56
  %58 = load i8, i8* %57, align 1
  %59 = sext i8 %58 to i32
  %60 = icmp ne i32 %53, %59
  br i1 %60, label %61, label %62

61:                                               ; preds = %48
  store i32 0, i32* %10, align 4
  br label %62

62:                                               ; preds = %61, %48
  br label %63

63:                                               ; preds = %62
  %64 = load i32, i32* %8, align 4
  %65 = add nsw i32 %64, 1
  store i32 %65, i32* %8, align 4
  br label %44

66:                                               ; preds = %44
  %67 = load i32, i32* %10, align 4
  %68 = icmp eq i32 %67, 1
  br i1 %68, label %69, label %71

69:                                               ; preds = %66
  %70 = load i32, i32* %7, align 4
  store i32 %70, i32* %9, align 4
  br label %76

71:                                               ; preds = %66
  br label %72

72:                                               ; preds = %71
  %73 = load i32, i32* %7, align 4
  %74 = add nsw i32 %73, 1
  store i32 %74, i32* %7, align 4
  br label %18

75:                                               ; preds = %18
  br label %76

76:                                               ; preds = %75, %69
  %77 = load i32, i32* %9, align 4
  ret i32 %77
}

declare dso_local i32 @printf(i8*, ...) #1

; Function Attrs: nounwind readonly
declare dso_local i64 @strlen(i8*) #2


!llvm.module.flags = !{!0}
!llvm.ident = !{!1}

!0 = !{i32 1, !"wchar_size", i32 4}
!1 = !{!"clang version 10.0.0-4ubuntu1 "}
